target datalayout = "e-m:e-p270:32:32-p271:32:32-p272:64:64-i64:64-i128:128-f80:128-n8:16:32:64-S128"
target triple = "x86_64-pc-linux-gnu"

%"class.llvm::NaryReassociatePass" = type { ptr, ptr, ptr, ptr, ptr, ptr, %"class.llvm::DenseMap.5" }
%"class.llvm::DenseMap.5" = type <{ ptr, i32, i32, i32, [4 x i8] }>

; Function Attrs: mustprogress nounwind uwtable
define dso_local noundef zeroext i1 @_ZN4llvm19NaryReassociatePass7runImplERNS_8FunctionEPNS_15AssumptionCacheEPNS_13DominatorTreeEPNS_15ScalarEvolutionEPNS_17TargetLibraryInfoEPNS_19TargetTransformInfoE(ptr noundef nonnull align 8 dereferenceable(72) %0, ptr noundef nonnull align 8 dereferenceable(136) %1, ptr noundef %2, ptr noundef %3, ptr noundef %4, ptr noundef %5, ptr noundef %6) #0 align 2 {
  %8 = alloca ptr, align 8
  %9 = alloca ptr, align 8
  %10 = alloca ptr, align 8
  %11 = alloca ptr, align 8
  %12 = alloca ptr, align 8
  %13 = alloca ptr, align 8
  %14 = alloca ptr, align 8
  %15 = alloca i8, align 1
  %16 = alloca i8, align 1
  store ptr %0, ptr %8, align 8
  store ptr %1, ptr %9, align 8
  store ptr %2, ptr %10, align 8
  store ptr %3, ptr %11, align 8
  store ptr %4, ptr %12, align 8
  store ptr %5, ptr %13, align 8
  store ptr %6, ptr %14, align 8
  %17 = load ptr, ptr %8, align 8
  %18 = load ptr, ptr %10, align 8
  %19 = getelementptr inbounds nuw %"class.llvm::NaryReassociatePass", ptr %17, i32 0, i32 0
  store ptr %18, ptr %19, align 8
  %20 = load ptr, ptr %11, align 8
  %21 = getelementptr inbounds nuw %"class.llvm::NaryReassociatePass", ptr %17, i32 0, i32 2
  store ptr %20, ptr %21, align 8
  %22 = load ptr, ptr %12, align 8
  %23 = getelementptr inbounds nuw %"class.llvm::NaryReassociatePass", ptr %17, i32 0, i32 3
  store ptr %22, ptr %23, align 8
  %24 = load ptr, ptr %13, align 8
  %25 = getelementptr inbounds nuw %"class.llvm::NaryReassociatePass", ptr %17, i32 0, i32 4
  store ptr %24, ptr %25, align 8
  %26 = load ptr, ptr %14, align 8
  %27 = getelementptr inbounds nuw %"class.llvm::NaryReassociatePass", ptr %17, i32 0, i32 5
  store ptr %26, ptr %27, align 8
  %28 = load ptr, ptr %9, align 8
  %29 = call noundef nonnull align 8 dereferenceable(512) ptr @_ZNK4llvm8Function13getDataLayoutEv(ptr noundef nonnull align 8 dereferenceable(136) %28)
  %30 = getelementptr inbounds nuw %"class.llvm::NaryReassociatePass", ptr %17, i32 0, i32 1
  store ptr %29, ptr %30, align 8
  store i8 0, ptr %15, align 1
  br label %31

31:                                               ; preds = %44, %7
  %32 = load ptr, ptr %9, align 8
  %33 = call noundef zeroext i1 @_ZN4llvm19NaryReassociatePass14doOneIterationERNS_8FunctionE(ptr noundef nonnull align 8 dereferenceable(72) %17, ptr noundef nonnull align 8 dereferenceable(136) %32)
  %34 = zext i1 %33 to i8
  store i8 %34, ptr %16, align 1
  %35 = load i8, ptr %16, align 1
  %36 = trunc i8 %35 to i1
  %37 = zext i1 %36 to i32
  %38 = load i8, ptr %15, align 1
  %39 = trunc i8 %38 to i1
  %40 = zext i1 %39 to i32
  %41 = or i32 %40, %37
  %42 = icmp ne i32 %41, 0
  %43 = zext i1 %42 to i8
  store i8 %43, ptr %15, align 1
  br label %44

44:                                               ; preds = %31
  %45 = load i8, ptr %16, align 1
  %46 = trunc i8 %45 to i1
  br i1 %46, label %31, label %47, !llvm.loop !4

47:                                               ; preds = %44
  %48 = load i8, ptr %15, align 1
  %49 = trunc i8 %48 to i1
  ret i1 %49
}