; Function Attrs: mustprogress nounwind uwtable
define dso_local noundef zeroext i1 @_ZN4llvm19NaryReassociatePass7runImplERNS_8FunctionEPNS_15AssumptionCacheEPNS_13DominatorTreeEPNS_15ScalarEvolutionEPNS_17TargetLibraryInfoEPNS_19TargetTransformInfoE(ptr noundef nonnull align 8 dereferenceable(72) initializes((0, 48)) %0, ptr noundef nonnull align 8 dereferenceable(136) %1, ptr noundef %2, ptr noundef %3, ptr noundef %4, ptr noundef %5, ptr noundef %6) local_unnamed_addr #0 align 2 {
  store ptr %2, ptr %0, align 8
  %8 = getelementptr inbounds nuw i8, ptr %0, i64 16
  store ptr %3, ptr %8, align 8
  %9 = getelementptr inbounds nuw i8, ptr %0, i64 24
  store ptr %4, ptr %9, align 8
  %10 = getelementptr inbounds nuw i8, ptr %0, i64 32
  store ptr %5, ptr %10, align 8
  %11 = getelementptr inbounds nuw i8, ptr %0, i64 40
  store ptr %6, ptr %11, align 8
  %12 = tail call noundef nonnull align 8 dereferenceable(512) ptr @_ZNK4llvm8Function13getDataLayoutEv(ptr noundef nonnull align 8 dereferenceable(136) %1) #17
  %13 = getelementptr inbounds nuw i8, ptr %0, i64 8
  store ptr %12, ptr %13, align 8
  br label %14

14:                                               ; preds = %14, %7
  %.0 = phi i1 [ false, %7 ], [ true, %14 ]
  %15 = tail call noundef zeroext i1 @_ZN4llvm19NaryReassociatePass14doOneIterationERNS_8FunctionE(ptr noundef nonnull align 8 dereferenceable(72) %0, ptr nonnull align 8 poison)
  br i1 %15, label %14, label %16, !llvm.loop !4

16:                                               ; preds = %14
  ret i1 %.0
}